target datalayout = "e-m:e-p270:32:32-p271:32:32-p272:64:64-i64:64-i128:128-f80:128-n8:16:32:64-S128"
target triple = "x86_64-unknown-linux-gnu"

%"class.sat::literal" = type { i32 }
%"class.sat::aig_cuts" = type { %class.random_gen, %"struct.sat::aig_cuts::config", %class.vector, %class.svector, %class.region, %"class.sat::cut_set", %"class.sat::cut_set", %"class.sat::cut_set", %class.vector.1, %class.svector.2, %class.svector.2, i32, i32, %class.svector.4, i32, %"class.std::function", %"class.std::function", %"class.std::function.6", %"class.std::function.6", %class.svector, [6 x ptr], [6 x i64], [6 x %"class.sat::literal"] }
%class.random_gen = type { i32 }
%"struct.sat::aig_cuts::config" = type <{ i32, i32, i32, i8, [3 x i8] }>
%class.vector = type { ptr }
%class.region = type { ptr, ptr, ptr, ptr, ptr }
%"class.sat::cut_set" = type { i32, ptr, i32, i32, ptr }
%class.vector.1 = type { ptr }
%class.svector.2 = type { %class.vector.3 }
%class.vector.3 = type { ptr }
%class.svector.4 = type { %class.vector.5 }
%class.vector.5 = type { ptr }
%"class.std::function" = type { %"class.std::_Function_base", ptr }
%"class.std::_Function_base" = type { %"union.std::_Any_data", ptr }
%"union.std::_Any_data" = type { %"union.std::_Nocopy_types" }
%"union.std::_Nocopy_types" = type { { i64, i64 } }
%"class.std::function.6" = type { %"class.std::_Function_base", ptr }
%class.svector = type { %class.vector.0 }
%class.vector.0 = type { ptr }
%"class.sat::aig_cuts::node" = type { i8, i32, i64, i32, i32 }

; Function Attrs: mustprogress nounwind uwtable
define linkonce_odr hidden noundef i32 @_ZNK6vectorI7svectorIN3sat8aig_cuts4nodeEjELb1EjE4sizeEv(ptr noundef nonnull align 8 dereferenceable(8) %this) #4 comdat align 2 {
entry:
  %retval = alloca i32, align 4
  %this.addr = alloca ptr, align 8
  store ptr %this, ptr %this.addr, align 8
  %this1 = load ptr, ptr %this.addr, align 8
  %m_data = getelementptr inbounds %class.vector, ptr %this1, i32 0, i32 0
  %0 = load ptr, ptr %m_data, align 8
  %cmp = icmp eq ptr %0, null
  br i1 %cmp, label %if.then, label %if.end

if.then:                                          ; preds = %entry
  store i32 0, ptr %retval, align 4
  br label %return

if.end:                                           ; preds = %entry
  %m_data2 = getelementptr inbounds %class.vector, ptr %this1, i32 0, i32 0
  %1 = load ptr, ptr %m_data2, align 8
  %arrayidx = getelementptr inbounds i32, ptr %1, i64 -1
  %2 = load i32, ptr %arrayidx, align 4
  store i32 %2, ptr %retval, align 4
  br label %return

return:                                           ; preds = %if.end, %if.then
  %3 = load i32, ptr %retval, align 4
  ret i32 %3
}

; Function Attrs: mustprogress nounwind uwtable
define linkonce_odr hidden noundef nonnull align 4 dereferenceable(4) ptr @_ZNK6vectorIjLb0EjEixEj(ptr noundef nonnull align 8 dereferenceable(8) %this, i32 noundef %idx) #4 comdat align 2 {
entry:
  %this.addr = alloca ptr, align 8
  %idx.addr = alloca i32, align 4
  store ptr %this, ptr %this.addr, align 8
  store i32 %idx, ptr %idx.addr, align 4
  %this1 = load ptr, ptr %this.addr, align 8
  %m_data = getelementptr inbounds %class.vector.3, ptr %this1, i32 0, i32 0
  %0 = load ptr, ptr %m_data, align 8
  %1 = load i32, ptr %idx.addr, align 4
  %idxprom = zext i32 %1 to i64
  %arrayidx = getelementptr inbounds i32, ptr %0, i64 %idxprom
  ret ptr %arrayidx
}

; Function Attrs: mustprogress nounwind uwtable
define linkonce_odr hidden noundef i32 @_ZNK6vectorIjLb0EjE4sizeEv(ptr noundef nonnull align 8 dereferenceable(8) %this) #4 comdat align 2 {
entry:
  %retval = alloca i32, align 4
  %this.addr = alloca ptr, align 8
  store ptr %this, ptr %this.addr, align 8
  %this1 = load ptr, ptr %this.addr, align 8
  %m_data = getelementptr inbounds %class.vector.3, ptr %this1, i32 0, i32 0
  %0 = load ptr, ptr %m_data, align 8
  %cmp = icmp eq ptr %0, null
  br i1 %cmp, label %if.then, label %if.end

if.then:                                          ; preds = %entry
  store i32 0, ptr %retval, align 4
  br label %return

if.end:                                           ; preds = %entry
  %m_data2 = getelementptr inbounds %class.vector.3, ptr %this1, i32 0, i32 0
  %1 = load ptr, ptr %m_data2, align 8
  %arrayidx = getelementptr inbounds i32, ptr %1, i64 -1
  %2 = load i32, ptr %arrayidx, align 4
  store i32 %2, ptr %retval, align 4
  br label %return

return:                                           ; preds = %if.end, %if.then
  %3 = load i32, ptr %retval, align 4
  ret i32 %3
}

; Function Attrs: mustprogress nounwind uwtable
define linkonce_odr hidden noundef i32 @_ZNK3sat7literal3varEv(ptr noundef nonnull align 4 dereferenceable(4) %this) #4 comdat align 2 {
entry:
  %this.addr = alloca ptr, align 8
  store ptr %this, ptr %this.addr, align 8
  %this1 = load ptr, ptr %this.addr, align 8
  %m_val = getelementptr inbounds %"class.sat::literal", ptr %this1, i32 0, i32 0
  %0 = load i32, ptr %m_val, align 4
  %shr = lshr i32 %0, 1
  ret i32 %shr
}

; Function Attrs: mustprogress uwtable
define linkonce_odr hidden noundef zeroext i1 @_ZNK3sat8aig_cuts10is_touchedEj(ptr noundef nonnull align 8 dereferenceable(480) %this, i32 noundef %v) #5 comdat align 2 {
entry:
  %this.addr = alloca ptr, align 8
  %v.addr = alloca i32, align 4
  store ptr %this, ptr %this.addr, align 8
  store i32 %v, ptr %v.addr, align 4
  %this1 = load ptr, ptr %this.addr, align 8
  %0 = load i32, ptr %v.addr, align 4
  %m_last_touched = getelementptr inbounds %"class.sat::aig_cuts", ptr %this1, i32 0, i32 10
  %call = call noundef i32 @_ZNK6vectorIjLb0EjE4sizeEv(ptr noundef nonnull align 8 dereferenceable(8) %m_last_touched)
  %cmp = icmp ult i32 %0, %call
  br i1 %cmp, label %land.rhs, label %land.end

land.rhs:                                         ; preds = %entry
  %m_last_touched2 = getelementptr inbounds %"class.sat::aig_cuts", ptr %this1, i32 0, i32 10
  %1 = load i32, ptr %v.addr, align 4
  %call3 = call noundef nonnull align 4 dereferenceable(4) ptr @_ZNK6vectorIjLb0EjEixEj(ptr noundef nonnull align 8 dereferenceable(8) %m_last_touched2, i32 noundef %1)
  %2 = load i32, ptr %call3, align 4
  %m_aig = getelementptr inbounds %"class.sat::aig_cuts", ptr %this1, i32 0, i32 2
  %call4 = call noundef i32 @_ZNK6vectorI7svectorIN3sat8aig_cuts4nodeEjELb1EjE4sizeEv(ptr noundef nonnull align 8 dereferenceable(8) %m_aig)
  %add = add i32 %2, %call4
  %m_num_cut_calls = getelementptr inbounds %"class.sat::aig_cuts", ptr %this1, i32 0, i32 11
  %3 = load i32, ptr %m_num_cut_calls, align 8
  %m_aig5 = getelementptr inbounds %"class.sat::aig_cuts", ptr %this1, i32 0, i32 2
  %call6 = call noundef i32 @_ZNK6vectorI7svectorIN3sat8aig_cuts4nodeEjELb1EjE4sizeEv(ptr noundef nonnull align 8 dereferenceable(8) %m_aig5)
  %mul = mul i32 %3, %call6
  %cmp7 = icmp uge i32 %add, %mul
  br label %land.end

land.end:                                         ; preds = %land.rhs, %entry
  %4 = phi i1 [ false, %entry ], [ %cmp7, %land.rhs ]
  ret i1 %4
}

; Function Attrs: mustprogress uwtable
define linkonce_odr hidden noundef zeroext i1 @_ZNK3sat8aig_cuts10is_touchedENS_7literalE(ptr noundef nonnull align 8 dereferenceable(480) %this, i32 %lit.coerce) #5 comdat align 2 {
entry:
  %lit = alloca %"class.sat::literal", align 4
  %this.addr = alloca ptr, align 8
  %coerce.dive = getelementptr inbounds %"class.sat::literal", ptr %lit, i32 0, i32 0
  store i32 %lit.coerce, ptr %coerce.dive, align 4
  store ptr %this, ptr %this.addr, align 8
  %this1 = load ptr, ptr %this.addr, align 8
  %call = call noundef i32 @_ZNK3sat7literal3varEv(ptr noundef nonnull align 4 dereferenceable(4) %lit)
  %call2 = call noundef zeroext i1 @_ZNK3sat8aig_cuts10is_touchedEj(ptr noundef nonnull align 8 dereferenceable(480) %this1, i32 noundef %call)
  ret i1 %call2
}

; Function Attrs: mustprogress nounwind uwtable
define linkonce_odr hidden noundef nonnull align 4 dereferenceable(4) ptr @_ZN6vectorIN3sat7literalELb0EjEixEj(ptr noundef nonnull align 8 dereferenceable(8) %this, i32 noundef %idx) #4 comdat align 2 {
entry:
  %this.addr = alloca ptr, align 8
  %idx.addr = alloca i32, align 4
  store ptr %this, ptr %this.addr, align 8
  store i32 %idx, ptr %idx.addr, align 4
  %this1 = load ptr, ptr %this.addr, align 8
  %m_data = getelementptr inbounds %class.vector.0, ptr %this1, i32 0, i32 0
  %0 = load ptr, ptr %m_data, align 8
  %1 = load i32, ptr %idx.addr, align 4
  %idxprom = zext i32 %1 to i64
  %arrayidx = getelementptr inbounds %"class.sat::literal", ptr %0, i64 %idxprom
  ret ptr %arrayidx
}

; Function Attrs: mustprogress nounwind uwtable
define linkonce_odr hidden noundef i32 @_ZNK3sat8aig_cuts4node6offsetEv(ptr noundef nonnull align 8 dereferenceable(24) %this) #4 comdat align 2 {
entry:
  %this.addr = alloca ptr, align 8
  store ptr %this, ptr %this.addr, align 8
  %this1 = load ptr, ptr %this.addr, align 8
  %m_offset = getelementptr inbounds %"class.sat::aig_cuts::node", ptr %this1, i32 0, i32 4
  %0 = load i32, ptr %m_offset, align 4
  ret i32 %0
}

; Function Attrs: mustprogress nounwind uwtable
define linkonce_odr hidden noundef i32 @_ZNK3sat8aig_cuts4node4sizeEv(ptr noundef nonnull align 8 dereferenceable(24) %this) #4 comdat align 2 {
entry:
  %this.addr = alloca ptr, align 8
  store ptr %this, ptr %this.addr, align 8
  %this1 = load ptr, ptr %this.addr, align 8
  %m_size = getelementptr inbounds %"class.sat::aig_cuts::node", ptr %this1, i32 0, i32 3
  %0 = load i32, ptr %m_size, align 8
  ret i32 %0
}

; Function Attrs: mustprogress uwtable
define hidden noundef zeroext i1 @_ZN3sat8aig_cuts10is_touchedEjRKNS0_4nodeE(ptr noundef nonnull align 8 dereferenceable(480) %this, i32 noundef %v, ptr noundef nonnull align 8 dereferenceable(24) %n) #5 align 2 {
entry:
  %retval = alloca i1, align 1
  %this.addr = alloca ptr, align 8
  %v.addr = alloca i32, align 4
  %n.addr = alloca ptr, align 8
  %i = alloca i32, align 4
  %lit = alloca %"class.sat::literal", align 4
  %agg.tmp = alloca %"class.sat::literal", align 4
  store ptr %this, ptr %this.addr, align 8
  store i32 %v, ptr %v.addr, align 4
  store ptr %n, ptr %n.addr, align 8
  %this1 = load ptr, ptr %this.addr, align 8
  store i32 0, ptr %i, align 4
  br label %for.cond

for.cond:                                         ; preds = %for.inc, %entry
  %0 = load i32, ptr %i, align 4
  %1 = load ptr, ptr %n.addr, align 8
  %call = call noundef i32 @_ZNK3sat8aig_cuts4node4sizeEv(ptr noundef nonnull align 8 dereferenceable(24) %1)
  %cmp = icmp ult i32 %0, %call
  br i1 %cmp, label %for.body, label %for.end

for.body:                                         ; preds = %for.cond
  %m_literals = getelementptr inbounds %"class.sat::aig_cuts", ptr %this1, i32 0, i32 3
  %2 = load ptr, ptr %n.addr, align 8
  %call2 = call noundef i32 @_ZNK3sat8aig_cuts4node6offsetEv(ptr noundef nonnull align 8 dereferenceable(24) %2)
  %3 = load i32, ptr %i, align 4
  %add = add i32 %call2, %3
  %call3 = call noundef nonnull align 4 dereferenceable(4) ptr @_ZN6vectorIN3sat7literalELb0EjEixEj(ptr noundef nonnull align 8 dereferenceable(8) %m_literals, i32 noundef %add)
  call void @llvm.memcpy.p0.p0.i64(ptr align 4 %lit, ptr align 4 %call3, i64 4, i1 false)
  call void @llvm.memcpy.p0.p0.i64(ptr align 4 %agg.tmp, ptr align 4 %lit, i64 4, i1 false)
  %coerce.dive = getelementptr inbounds %"class.sat::literal", ptr %agg.tmp, i32 0, i32 0
  %4 = load i32, ptr %coerce.dive, align 4
  %call4 = call noundef zeroext i1 @_ZNK3sat8aig_cuts10is_touchedENS_7literalE(ptr noundef nonnull align 8 dereferenceable(480) %this1, i32 %4)
  br i1 %call4, label %if.then, label %if.end

if.then:                                          ; preds = %for.body
  store i1 true, ptr %retval, align 1
  br label %return

if.end:                                           ; preds = %for.body
  br label %for.inc

for.inc:                                          ; preds = %if.end
  %5 = load i32, ptr %i, align 4
  %inc = add i32 %5, 1
  store i32 %inc, ptr %i, align 4
  br label %for.cond, !llvm.loop !7

for.end:                                          ; preds = %for.cond
  %6 = load i32, ptr %v.addr, align 4
  %call5 = call noundef zeroext i1 @_ZNK3sat8aig_cuts10is_touchedEj(ptr noundef nonnull align 8 dereferenceable(480) %this1, i32 noundef %6)
  store i1 %call5, ptr %retval, align 1
  br label %return

return:                                           ; preds = %for.end, %if.then
  %7 = load i1, ptr %retval, align 1
  ret i1 %7
}