; Function Attrs: mustprogress nofree norecurse nosync nounwind willreturn memory(read, inaccessiblemem: none) uwtable
define hidden noundef zeroext i1 @_ZN3sat8aig_cuts10is_touchedEjRKNS0_4nodeE(ptr nocapture noundef nonnull readonly align 8 dereferenceable(480) %this, i32 noundef %v, ptr nocapture noundef nonnull readonly align 8 dereferenceable(24) %n) local_unnamed_addr #5 align 2 {
entry:
  %m_size.i = getelementptr inbounds i8, ptr %n, i64 16
  %0 = load i32, ptr %m_size.i, align 8
  %cmp5.not = icmp eq i32 %0, 0
  br i1 %cmp5.not, label %entry.for.end_crit_edge, label %for.body.lr.ph

entry.for.end_crit_edge:                          ; preds = %entry
  %m_last_touched.i.phi.trans.insert = getelementptr inbounds i8, ptr %this, i64 192
  %.pre = load ptr, ptr %m_last_touched.i.phi.trans.insert, align 8
  br label %for.end

for.body.lr.ph:                                   ; preds = %entry
  %m_literals = getelementptr inbounds i8, ptr %this, i64 32
  %m_offset.i = getelementptr inbounds i8, ptr %n, i64 20
  %1 = load i32, ptr %m_offset.i, align 4
  %2 = load ptr, ptr %m_literals, align 8
  %m_last_touched.i.i = getelementptr inbounds i8, ptr %this, i64 192
  %3 = load ptr, ptr %m_last_touched.i.i, align 8
  %cmp.i.i.i = icmp eq ptr %3, null
  %m_aig.i.i = getelementptr inbounds i8, ptr %this, i64 24
  %4 = load ptr, ptr %m_aig.i.i, align 8
  %.fr = freeze ptr %4
  %arrayidx.i5.i.i = getelementptr inbounds i8, ptr %.fr, i64 -4
  %.in.i.i = getelementptr inbounds i8, ptr %this, i64 200
  %5 = load i32, ptr %.in.i.i, align 8
  br i1 %cmp.i.i.i, label %return, label %for.body.lr.ph.split

for.body.lr.ph.split:                             ; preds = %for.body.lr.ph
  %cmp.i3.i.i = icmp eq ptr %.fr, null
  %arrayidx.i.i.i = getelementptr inbounds i8, ptr %3, i64 -4
  %6 = load i32, ptr %arrayidx.i.i.i, align 4
  %wide.trip.count24 = zext i32 %0 to i64
  br i1 %cmp.i3.i.i, label %for.body.us7, label %for.body

for.body.us7:                                     ; preds = %for.body.lr.ph.split, %for.inc.us14
  %indvars.iv21 = phi i64 [ %indvars.iv.next22, %for.inc.us14 ], [ 0, %for.body.lr.ph.split ]
  %7 = trunc i64 %indvars.iv21 to i32
  %add.us9 = add i32 %1, %7
  %idxprom.i.us10 = zext i32 %add.us9 to i64
  %arrayidx.i.us11 = getelementptr inbounds %"class.sat::literal", ptr %2, i64 %idxprom.i.us10
  %lit.sroa.0.0.copyload.us12 = load i32, ptr %arrayidx.i.us11, align 4
  %shr.i.i.us13 = lshr i32 %lit.sroa.0.0.copyload.us12, 1
  %cmp.i.i.us = icmp ugt i32 %6, %shr.i.i.us13
  br i1 %cmp.i.i.us, label %return, label %for.inc.us14

for.inc.us14:                                     ; preds = %for.body.us7
  %indvars.iv.next22 = add nuw nsw i64 %indvars.iv21, 1
  %exitcond25.not = icmp eq i64 %indvars.iv.next22, %wide.trip.count24
  br i1 %exitcond25.not, label %for.end, label %for.body.us7, !llvm.loop !14

for.body:                                         ; preds = %for.body.lr.ph.split, %for.inc
  %indvars.iv = phi i64 [ %indvars.iv.next, %for.inc ], [ 0, %for.body.lr.ph.split ]
  %8 = trunc i64 %indvars.iv to i32
  %add = add i32 %1, %8
  %idxprom.i = zext i32 %add to i64
  %arrayidx.i = getelementptr inbounds %"class.sat::literal", ptr %2, i64 %idxprom.i
  %lit.sroa.0.0.copyload = load i32, ptr %arrayidx.i, align 4
  %shr.i.i = lshr i32 %lit.sroa.0.0.copyload, 1
  %cmp.i.i = icmp ugt i32 %6, %shr.i.i
  br i1 %cmp.i.i, label %land.rhs.i.i, label %for.inc

land.rhs.i.i:                                     ; preds = %for.body
  %idxprom.i.i.i = zext nneg i32 %shr.i.i to i64
  %arrayidx.i2.i.i = getelementptr inbounds i32, ptr %3, i64 %idxprom.i.i.i
  %9 = load i32, ptr %arrayidx.i2.i.i, align 4
  %10 = load i32, ptr %arrayidx.i5.i.i, align 4
  %add.i.i = add i32 %10, %9
  %mul.i.i = mul i32 %5, %10
  %cmp7.i.i.not = icmp ult i32 %add.i.i, %mul.i.i
  br i1 %cmp7.i.i.not, label %for.inc, label %return

for.inc:                                          ; preds = %for.body, %land.rhs.i.i
  %indvars.iv.next = add nuw nsw i64 %indvars.iv, 1
  %exitcond.not = icmp eq i64 %indvars.iv.next, %wide.trip.count24
  br i1 %exitcond.not, label %for.end, label %for.body, !llvm.loop !14

for.end:                                          ; preds = %for.inc, %for.inc.us14, %entry.for.end_crit_edge
  %11 = phi ptr [ %.pre, %entry.for.end_crit_edge ], [ %3, %for.inc.us14 ], [ %3, %for.inc ]
  %cmp.i.i4 = icmp eq ptr %11, null
  br i1 %cmp.i.i4, label %return, label %_ZNK6vectorIjLb0EjE4sizeEv.exit.i

_ZNK6vectorIjLb0EjE4sizeEv.exit.i:                ; preds = %for.end
  %arrayidx.i.i = getelementptr inbounds i8, ptr %11, i64 -4
  %12 = load i32, ptr %arrayidx.i.i, align 4
  %cmp.i = icmp ugt i32 %12, %v
  br i1 %cmp.i, label %land.rhs.i, label %return

land.rhs.i:                                       ; preds = %_ZNK6vectorIjLb0EjE4sizeEv.exit.i
  %idxprom.i.i = zext i32 %v to i64
  %arrayidx.i2.i = getelementptr inbounds i32, ptr %11, i64 %idxprom.i.i
  %13 = load i32, ptr %arrayidx.i2.i, align 4
  %m_aig.i = getelementptr inbounds i8, ptr %this, i64 24
  %14 = load ptr, ptr %m_aig.i, align 8
  %cmp.i3.i = icmp eq ptr %14, null
  br i1 %cmp.i3.i, label %_ZNK6vectorI7svectorIN3sat8aig_cuts4nodeEjELb1EjE4sizeEv.exit11.i, label %if.end.i8.i

if.end.i8.i:                                      ; preds = %land.rhs.i
  %arrayidx.i5.i = getelementptr inbounds i8, ptr %14, i64 -4
  %15 = load i32, ptr %arrayidx.i5.i, align 4
  %add.i = add i32 %15, %13
  br label %_ZNK6vectorI7svectorIN3sat8aig_cuts4nodeEjELb1EjE4sizeEv.exit11.i

_ZNK6vectorI7svectorIN3sat8aig_cuts4nodeEjELb1EjE4sizeEv.exit11.i: ; preds = %if.end.i8.i, %land.rhs.i
  %add17.i = phi i32 [ %add.i, %if.end.i8.i ], [ %13, %land.rhs.i ]
  %retval.0.i10.i = phi i32 [ %15, %if.end.i8.i ], [ 0, %land.rhs.i ]
  %.in.i = getelementptr inbounds i8, ptr %this, i64 200
  %16 = load i32, ptr %.in.i, align 8
  %mul.i = mul i32 %16, %retval.0.i10.i
  %cmp7.i = icmp uge i32 %add17.i, %mul.i
  br label %return

return:                                           ; preds = %land.rhs.i.i, %for.body.us7, %for.body.lr.ph, %_ZNK6vectorI7svectorIN3sat8aig_cuts4nodeEjELb1EjE4sizeEv.exit11.i, %_ZNK6vectorIjLb0EjE4sizeEv.exit.i, %for.end
  %retval.0 = phi i1 [ false, %_ZNK6vectorIjLb0EjE4sizeEv.exit.i ], [ %cmp7.i, %_ZNK6vectorI7svectorIN3sat8aig_cuts4nodeEjELb1EjE4sizeEv.exit11.i ], [ false, %for.end ], [ false, %for.body.lr.ph ], [ true, %for.body.us7 ], [ true, %land.rhs.i.i ]
  ret i1 %retval.0
}